; Function Attrs: mustprogress uwtable
define void @_ZN16PacketListHeader14doResolveNamesEv(ptr noundef nonnull align 8 dereferenceable(44) %0) #0 align 2 personality ptr @__gxx_personality_v0 {
  %2 = alloca %class.QVariant, align 8
  %3 = tail call noundef ptr @_ZNK7QObject6senderEv(ptr noundef nonnull align 8 dereferenceable(16) %0)
  %4 = tail call noundef ptr @_ZNK11QMetaObject4castEPK7QObject(ptr noundef nonnull align 8 dereferenceable(56) @_ZN7QAction16staticMetaObjectE, ptr noundef %3)
  %.not = icmp eq ptr %4, null
  br i1 %.not, label %16, label %5

5:                                                ; preds = %1
  %6 = getelementptr inbounds i8, ptr %4, i64 8
  %7 = load ptr, ptr %6, align 8
  %8 = getelementptr inbounds i8, ptr %7, i64 16
  %9 = load ptr, ptr %8, align 8
  %10 = tail call noundef ptr @_ZNK11QMetaObject4castEPK7QObject(ptr noundef nonnull align 8 dereferenceable(56) @_ZN5QMenu16staticMetaObjectE, ptr noundef %9)
  %.not9 = icmp eq ptr %10, null
  br i1 %.not9, label %16, label %11

11:                                               ; preds = %5
  call void @_ZNK7QObject8propertyEPKc(ptr dead_on_unwind nonnull writable sret(%class.QVariant) align 8 %2, ptr noundef nonnull align 8 dereferenceable(16) %10, ptr noundef nonnull @.str.3)
  %12 = invoke noundef i32 @_ZNK8QVariant5toIntEPb(ptr noundef nonnull align 8 dereferenceable(32) %2, ptr noundef null)
          to label %13 unwind label %17

13:                                               ; preds = %11
  call void @_ZN8QVariantD1Ev(ptr noundef nonnull align 8 dereferenceable(32) %2) #10
  %14 = call noundef zeroext i1 @_ZNK7QAction9isCheckedEv(ptr noundef nonnull align 8 dereferenceable(16) %4)
  %15 = zext i1 %14 to i32
  call void @set_column_resolved(i32 noundef %12, i32 noundef %15)
  call void @prefs_main_write()
  call void @_ZN16PacketListHeader13updatePacketsEb(ptr noundef nonnull align 8 dereferenceable(44) %0, i1 noundef zeroext true)
  br label %16

16:                                               ; preds = %5, %1, %13
  ret void

17:                                               ; preds = %11
  %18 = landingpad { ptr, i32 }
          cleanup
  call void @_ZN8QVariantD1Ev(ptr noundef nonnull align 8 dereferenceable(32) %2) #10
  resume { ptr, i32 } %18
}